target datalayout = "e-m:e-p270:32:32-p271:32:32-p272:64:64-i64:64-i128:128-f80:128-n8:16:32:64-S128"
target triple = "x86_64-pc-linux-gnu"

%class.AccessFlags = type { i32 }
%class.ClassFileParser = type { ptr, ptr, ptr, i8, i8, i32, ptr, ptr, ptr, ptr, ptr, ptr, ptr, i16, ptr, ptr, ptr, ptr, ptr, ptr, ptr, ptr, ptr, ptr, ptr, ptr, ptr, ptr, ptr, ptr, ptr, [128 x i8], i32, i32, i32, %class.Handle, %class.AccessFlags, i32, i16, i8, i32, ptr, i16, i16, i16, i16, i16, i16, i16, i16, i8, i8, i8, i8, i8, i8, i8, i8, i8, i32 }
%class.Handle = type { ptr }

@.str.175 = private unnamed_addr constant [54 x i8] c"Illegal UTF8 string in constant pool in class file %s\00", align 1

; Function Attrs: mustprogress nounwind uwtable
define hidden void @_ZNK15ClassFileParser17verify_legal_utf8EPKhiP10JavaThread(ptr noundef nonnull align 8 dereferenceable(440) %0, ptr noundef %1, i32 noundef %2, ptr noundef %3) #1 align 2 {
  %5 = alloca ptr, align 8
  %6 = alloca ptr, align 8
  %7 = alloca i32, align 4
  %8 = alloca ptr, align 8
  store ptr %0, ptr %5, align 8
  store ptr %1, ptr %6, align 8
  store i32 %2, ptr %7, align 4
  store ptr %3, ptr %8, align 8
  %9 = load ptr, ptr %5, align 8
  %10 = load ptr, ptr %6, align 8
  %11 = load i32, ptr %7, align 4
  %12 = getelementptr inbounds %class.ClassFileParser, ptr %9, i32 0, i32 44
  %13 = load i16, ptr %12, align 4
  %14 = zext i16 %13 to i32
  %15 = icmp sle i32 %14, 47
  %16 = call noundef zeroext i1 @_ZN4UTF813is_legal_utf8EPKhib(ptr noundef %10, i32 noundef %11, i1 noundef zeroext %15)
  br i1 %16, label %19, label %17

17:                                               ; preds = %4
  %18 = load ptr, ptr %8, align 8
  call void @_ZNK15ClassFileParser21classfile_parse_errorEPKcP10JavaThread(ptr noundef nonnull align 8 dereferenceable(440) %9, ptr noundef @.str.175, ptr noundef %18)
  br label %19

19:                                               ; preds = %17, %4
  ret void
}