; Function Attrs: mustprogress nounwind uwtable
define hidden void @_ZNK15ClassFileParser17verify_legal_utf8EPKhiP10JavaThread(ptr noundef nonnull align 8 dereferenceable(440) %0, ptr noundef %1, i32 noundef %2, ptr noundef %3) local_unnamed_addr #1 align 2 {
  %5 = getelementptr inbounds i8, ptr %0, i64 412
  %6 = load i16, ptr %5, align 4
  %7 = icmp ult i16 %6, 48
  %8 = tail call noundef zeroext i1 @_ZN4UTF813is_legal_utf8EPKhib(ptr noundef %1, i32 noundef %2, i1 noundef zeroext %7) #23
  br i1 %8, label %10, label %9

9:                                                ; preds = %4
  tail call void @_ZNK15ClassFileParser21classfile_parse_errorEPKcP10JavaThread(ptr noundef nonnull align 8 dereferenceable(440) %0, ptr noundef nonnull @.str.175, ptr noundef %3) #23
  br label %10

10:                                               ; preds = %9, %4
  ret void
}